target datalayout = "e-m:e-p270:32:32-p271:32:32-p272:64:64-i64:64-i128:128-f80:128-n8:16:32:64-S128"
target triple = "x86_64-pc-linux-gnu"

%struct.lbmpdm_tcp_tag_entry_t = type { ptr, i32, i32 }
%struct._packet_info = type { ptr, ptr, i32, i32, %struct.nstime_t, %struct.nstime_t, %struct.nstime_t, i8, ptr, ptr, ptr, ptr, %struct._address, %struct._address, %struct._address, %struct._address, %struct._address, %struct._address, i32, ptr, i8, [3 x i8], %struct.anon.1, i32, i32, i32, i32, ptr, i8, ptr, ptr, i16, i16, i32, i32, i16, i32, i32, ptr, ptr, ptr, i8, i8, i16, i16, i16, i32, i16, i16, ptr, ptr, ptr, ptr, ptr, i32, i32 }
%struct.nstime_t = type { i64, i32 }
%struct._address = type { i32, i32, ptr, ptr }
%struct.anon.1 = type { i8, [3 x i8] }

@.str.5 = private unnamed_addr constant [11 x i8] c"LBMPDM-TCP\00", align 1
@lbmpdm_tcp_tag_entry = internal global ptr null, align 8
@lbmpdm_tcp_tag_count = internal global i32 0, align 4
@lbmpdm_tcp_use_tag = internal global i8 0, align 1
@.str.33 = private unnamed_addr constant [10 x i8] c"[Tag: %s]\00", align 1

; Function Attrs: nounwind null_pointer_is_valid sspstrong uwtable
define internal ptr @lbmpdm_tcp_tag_locate(ptr noundef %0) #4 {
  %2 = alloca ptr, align 8
  %3 = alloca ptr, align 8
  %4 = alloca i32, align 4
  %5 = alloca ptr, align 8
  %6 = alloca i32, align 4
  store ptr %0, ptr %3, align 8
  call void @llvm.lifetime.start.p0(i64 4, ptr %4) #9
  call void @llvm.lifetime.start.p0(i64 8, ptr %5) #9
  store ptr null, ptr %5, align 8
  %7 = load i8, ptr @lbmpdm_tcp_use_tag, align 1, !range !6, !noundef !7
  %8 = trunc i8 %7 to i1
  br i1 %8, label %10, label %9

9:                                                ; preds = %1
  store ptr null, ptr %2, align 8
  store i32 1, ptr %6, align 4
  br label %58

10:                                               ; preds = %1
  store i32 0, ptr %4, align 4
  br label %11

11:                                               ; preds = %54, %10
  %12 = load i32, ptr %4, align 4
  %13 = load i32, ptr @lbmpdm_tcp_tag_count, align 4
  %14 = icmp ult i32 %12, %13
  br i1 %14, label %15, label %57

15:                                               ; preds = %11
  %16 = load ptr, ptr @lbmpdm_tcp_tag_entry, align 8
  %17 = load i32, ptr %4, align 4
  %18 = zext i32 %17 to i64
  %19 = getelementptr %struct.lbmpdm_tcp_tag_entry_t, ptr %16, i64 %18
  store ptr %19, ptr %5, align 8
  %20 = load ptr, ptr %3, align 8
  %21 = getelementptr inbounds nuw %struct._packet_info, ptr %20, i32 0, i32 24
  %22 = load i32, ptr %21, align 4
  %23 = load ptr, ptr %5, align 8
  %24 = getelementptr inbounds nuw %struct.lbmpdm_tcp_tag_entry_t, ptr %23, i32 0, i32 1
  %25 = load i32, ptr %24, align 8
  %26 = icmp uge i32 %22, %25
  br i1 %26, label %27, label %35

27:                                               ; preds = %15
  %28 = load ptr, ptr %3, align 8
  %29 = getelementptr inbounds nuw %struct._packet_info, ptr %28, i32 0, i32 24
  %30 = load i32, ptr %29, align 4
  %31 = load ptr, ptr %5, align 8
  %32 = getelementptr inbounds nuw %struct.lbmpdm_tcp_tag_entry_t, ptr %31, i32 0, i32 2
  %33 = load i32, ptr %32, align 4
  %34 = icmp ule i32 %30, %33
  br i1 %34, label %51, label %35

35:                                               ; preds = %27, %15
  %36 = load ptr, ptr %3, align 8
  %37 = getelementptr inbounds nuw %struct._packet_info, ptr %36, i32 0, i32 25
  %38 = load i32, ptr %37, align 8
  %39 = load ptr, ptr %5, align 8
  %40 = getelementptr inbounds nuw %struct.lbmpdm_tcp_tag_entry_t, ptr %39, i32 0, i32 1
  %41 = load i32, ptr %40, align 8
  %42 = icmp uge i32 %38, %41
  br i1 %42, label %43, label %53

43:                                               ; preds = %35
  %44 = load ptr, ptr %3, align 8
  %45 = getelementptr inbounds nuw %struct._packet_info, ptr %44, i32 0, i32 25
  %46 = load i32, ptr %45, align 8
  %47 = load ptr, ptr %5, align 8
  %48 = getelementptr inbounds nuw %struct.lbmpdm_tcp_tag_entry_t, ptr %47, i32 0, i32 2
  %49 = load i32, ptr %48, align 4
  %50 = icmp ule i32 %46, %49
  br i1 %50, label %51, label %53

51:                                               ; preds = %43, %27
  %52 = load ptr, ptr %5, align 8
  store ptr %52, ptr %2, align 8
  store i32 1, ptr %6, align 4
  br label %58

53:                                               ; preds = %43, %35
  br label %54

54:                                               ; preds = %53
  %55 = load i32, ptr %4, align 4
  %56 = add i32 %55, 1
  store i32 %56, ptr %4, align 4
  br label %11, !llvm.loop !8

57:                                               ; preds = %11
  store ptr null, ptr %2, align 8
  store i32 1, ptr %6, align 4
  br label %58

58:                                               ; preds = %57, %51, %9
  call void @llvm.lifetime.end.p0(i64 8, ptr %5) #9
  call void @llvm.lifetime.end.p0(i64 4, ptr %4) #9
  %59 = load ptr, ptr %2, align 8
  ret ptr %59
}

; Function Attrs: null_pointer_is_valid sspstrong uwtable
define internal ptr @lbmpdm_tcp_tag_find(ptr noundef %0) #0 {
  %2 = alloca ptr, align 8
  %3 = alloca ptr, align 8
  %4 = alloca ptr, align 8
  %5 = alloca i32, align 4
  store ptr %0, ptr %3, align 8
  call void @llvm.lifetime.start.p0(i64 8, ptr %4) #9
  store ptr null, ptr %4, align 8
  %6 = load i8, ptr @lbmpdm_tcp_use_tag, align 1, !range !6, !noundef !7
  %7 = trunc i8 %6 to i1
  br i1 %7, label %9, label %8

8:                                                ; preds = %1
  store ptr null, ptr %2, align 8
  store i32 1, ptr %5, align 4
  br label %19

9:                                                ; preds = %1
  %10 = load ptr, ptr %3, align 8
  %11 = call ptr @lbmpdm_tcp_tag_locate(ptr noundef %10)
  store ptr %11, ptr %4, align 8
  %12 = load ptr, ptr %4, align 8
  %13 = icmp ne ptr %12, null
  br i1 %13, label %14, label %18

14:                                               ; preds = %9
  %15 = load ptr, ptr %4, align 8
  %16 = getelementptr inbounds nuw %struct.lbmpdm_tcp_tag_entry_t, ptr %15, i32 0, i32 0
  %17 = load ptr, ptr %16, align 8
  store ptr %17, ptr %2, align 8
  store i32 1, ptr %5, align 4
  br label %19

18:                                               ; preds = %9
  store ptr null, ptr %2, align 8
  store i32 1, ptr %5, align 4
  br label %19

19:                                               ; preds = %18, %14, %8
  call void @llvm.lifetime.end.p0(i64 8, ptr %4) #9
  %20 = load ptr, ptr %2, align 8
  ret ptr %20
}

; Function Attrs: null_pointer_is_valid sspstrong uwtable
define internal i32 @dissect_lbmpdm_tcp(ptr noundef %0, ptr noundef %1, ptr noundef %2, ptr noundef %3) #0 {
  %5 = alloca ptr, align 8
  %6 = alloca ptr, align 8
  %7 = alloca ptr, align 8
  %8 = alloca ptr, align 8
  %9 = alloca ptr, align 8
  store ptr %0, ptr %5, align 8
  store ptr %1, ptr %6, align 8
  store ptr %2, ptr %7, align 8
  store ptr %3, ptr %8, align 8
  call void @llvm.lifetime.start.p0(i64 8, ptr %9) #9
  store ptr null, ptr %9, align 8
  %10 = load ptr, ptr %6, align 8
  %11 = getelementptr inbounds nuw %struct._packet_info, ptr %10, i32 0, i32 1
  %12 = load ptr, ptr %11, align 8
  call void @col_set_str(ptr noundef %12, i32 noundef 35, ptr noundef @.str.5)
  %13 = load ptr, ptr %6, align 8
  %14 = getelementptr inbounds nuw %struct._packet_info, ptr %13, i32 0, i32 1
  %15 = load ptr, ptr %14, align 8
  call void @col_clear(ptr noundef %15, i32 noundef 25)
  %16 = load i8, ptr @lbmpdm_tcp_use_tag, align 1, !range !6, !noundef !7
  %17 = trunc i8 %16 to i1
  br i1 %17, label %18, label %21

18:                                               ; preds = %4
  %19 = load ptr, ptr %6, align 8
  %20 = call ptr @lbmpdm_tcp_tag_find(ptr noundef %19)
  store ptr %20, ptr %9, align 8
  br label %21

21:                                               ; preds = %18, %4
  %22 = load ptr, ptr %9, align 8
  %23 = icmp ne ptr %22, null
  br i1 %23, label %24, label %29

24:                                               ; preds = %21
  %25 = load ptr, ptr %6, align 8
  %26 = getelementptr inbounds nuw %struct._packet_info, ptr %25, i32 0, i32 1
  %27 = load ptr, ptr %26, align 8
  %28 = load ptr, ptr %9, align 8
  call void (ptr, i32, ptr, ...) @col_add_fstr(ptr noundef %27, i32 noundef 25, ptr noundef @.str.33, ptr noundef %28)
  br label %29

29:                                               ; preds = %24, %21
  %30 = load ptr, ptr %6, align 8
  %31 = getelementptr inbounds nuw %struct._packet_info, ptr %30, i32 0, i32 1
  %32 = load ptr, ptr %31, align 8
  call void @col_set_fence(ptr noundef %32, i32 noundef 25)
  %33 = load ptr, ptr %5, align 8
  %34 = load ptr, ptr %6, align 8
  %35 = load ptr, ptr %7, align 8
  %36 = call i32 @lbmpdm_get_minimum_length()
  call void @tcp_dissect_pdus(ptr noundef %33, ptr noundef %34, ptr noundef %35, i1 noundef zeroext true, i32 noundef %36, ptr noundef @get_lbmpdm_tcp_pdu_length, ptr noundef @dissect_lbmpdm_tcp_pdu, ptr noundef null)
  %37 = load ptr, ptr %5, align 8
  %38 = call i32 @tvb_captured_length(ptr noundef %37)
  call void @llvm.lifetime.end.p0(i64 8, ptr %9) #9
  ret i32 %38
}