; Function Attrs: null_pointer_is_valid sspstrong uwtable
define internal i32 @dissect_lbmpdm_tcp(ptr noundef %0, ptr noundef %1, ptr noundef %2, ptr readnone captures(none) %3) #0 {
  %5 = getelementptr inbounds nuw i8, ptr %1, i64 8
  %6 = load ptr, ptr %5, align 8
  tail call void @col_set_str(ptr noundef %6, i32 noundef 35, ptr noundef nonnull @.str.5)
  %7 = load ptr, ptr %5, align 8
  tail call void @col_clear(ptr noundef %7, i32 noundef 25)
  %8 = load i8, ptr @lbmpdm_tcp_use_tag, align 1, !range !6, !noundef !7
  %9 = trunc nuw i8 %8 to i1
  br i1 %9, label %.preheader.i.i, label %lbmpdm_tcp_tag_find.exit.thread

.preheader.i.i:                                   ; preds = %4
  %10 = load i32, ptr @lbmpdm_tcp_tag_count, align 4
  %.not23.i.i = icmp eq i32 %10, 0
  br i1 %.not23.i.i, label %lbmpdm_tcp_tag_find.exit.thread, label %.lr.ph.i.i

.lr.ph.i.i:                                       ; preds = %.preheader.i.i
  %11 = load ptr, ptr @lbmpdm_tcp_tag_entry, align 8
  %12 = getelementptr inbounds nuw i8, ptr %1, i64 284
  %13 = load i32, ptr %12, align 4
  %14 = getelementptr inbounds nuw i8, ptr %1, i64 288
  %wide.trip.count.i.i = zext i32 %10 to i64
  br label %15

15:                                               ; preds = %27, %.lr.ph.i.i
  %indvars.iv.i.i = phi i64 [ 0, %.lr.ph.i.i ], [ %indvars.iv.next.i.i, %27 ]
  %16 = getelementptr %struct.lbmpdm_tcp_tag_entry_t, ptr %11, i64 %indvars.iv.i.i
  %17 = getelementptr inbounds nuw i8, ptr %16, i64 8
  %18 = load i32, ptr %17, align 8
  %.not.i.i = icmp ult i32 %13, %18
  br i1 %.not.i.i, label %22, label %19

19:                                               ; preds = %15
  %20 = getelementptr inbounds nuw i8, ptr %16, i64 12
  %21 = load i32, ptr %20, align 4
  %.not15.i.i = icmp ugt i32 %13, %21
  br i1 %.not15.i.i, label %22, label %lbmpdm_tcp_tag_locate.exit.i

22:                                               ; preds = %19, %15
  %23 = load i32, ptr %14, align 8
  %.not16.i.i = icmp ult i32 %23, %18
  br i1 %.not16.i.i, label %27, label %24

24:                                               ; preds = %22
  %25 = getelementptr inbounds nuw i8, ptr %16, i64 12
  %26 = load i32, ptr %25, align 4
  %.not17.i.i = icmp ugt i32 %23, %26
  br i1 %.not17.i.i, label %27, label %lbmpdm_tcp_tag_locate.exit.i

27:                                               ; preds = %24, %22
  %indvars.iv.next.i.i = add nuw nsw i64 %indvars.iv.i.i, 1
  %exitcond.not.i.i = icmp eq i64 %indvars.iv.next.i.i, %wide.trip.count.i.i
  br i1 %exitcond.not.i.i, label %lbmpdm_tcp_tag_find.exit.thread, label %15, !llvm.loop !8

lbmpdm_tcp_tag_locate.exit.i:                     ; preds = %24, %19
  %.not.i = icmp eq ptr %16, null
  br i1 %.not.i, label %lbmpdm_tcp_tag_find.exit.thread, label %lbmpdm_tcp_tag_find.exit

lbmpdm_tcp_tag_find.exit:                         ; preds = %lbmpdm_tcp_tag_locate.exit.i
  %28 = load ptr, ptr %16, align 8
  %.not = icmp eq ptr %28, null
  br i1 %.not, label %lbmpdm_tcp_tag_find.exit.thread, label %29

29:                                               ; preds = %lbmpdm_tcp_tag_find.exit
  %30 = load ptr, ptr %5, align 8
  tail call void (ptr, i32, ptr, ...) @col_add_fstr(ptr noundef %30, i32 noundef 25, ptr noundef nonnull @.str.33, ptr noundef nonnull %28)
  br label %lbmpdm_tcp_tag_find.exit.thread

lbmpdm_tcp_tag_find.exit.thread:                  ; preds = %27, %.preheader.i.i, %lbmpdm_tcp_tag_locate.exit.i, %4, %29, %lbmpdm_tcp_tag_find.exit
  %31 = load ptr, ptr %5, align 8
  tail call void @col_set_fence(ptr noundef %31, i32 noundef 25)
  %32 = tail call i32 @lbmpdm_get_minimum_length()
  tail call void @tcp_dissect_pdus(ptr noundef %0, ptr noundef %1, ptr noundef %2, i1 noundef zeroext true, i32 noundef %32, ptr noundef nonnull @get_lbmpdm_tcp_pdu_length, ptr noundef nonnull @dissect_lbmpdm_tcp_pdu, ptr noundef null)
  %33 = tail call i32 @tvb_captured_length(ptr noundef %0)
  ret i32 %33
}